; Function Attrs: mustprogress uwtable
define internal void @"_ZNSt17_Function_handlerIFN7rocksdb6StatusERKNS0_13ConfigOptionsERKNSt7__cxx1112basic_stringIcSt11char_traitsIcESaIcEEESC_PvENS0_3$_0EE9_M_invokeERKSt9_Any_dataS4_SC_SC_OSD_"(ptr noalias nocapture writeonly sret(%"class.rocksdb::Status") align 8 %agg.result, ptr nocapture nonnull readnone align 8 %__functor, ptr nocapture nonnull readnone align 8 %__args, ptr nocapture nonnull readnone align 8 %__args1, ptr noundef nonnull align 8 dereferenceable(32) %__args3, ptr nocapture noundef nonnull readonly align 8 dereferenceable(8) %__args5) #2 align 2 personality ptr @__gxx_personality_v0 {
entry:
  %__args5.val = load ptr, ptr %__args5, align 8
  tail call void @llvm.experimental.noalias.scope.decl(metadata !220)
  tail call void @llvm.experimental.noalias.scope.decl(metadata !223)
  tail call void @llvm.experimental.noalias.scope.decl(metadata !226)
  %call.i.i.i = tail call noundef i64 @_ZN7rocksdb11ParseUint64ERKNSt7__cxx1112basic_stringIcSt11char_traitsIcESaIcEEE(ptr noundef nonnull align 8 dereferenceable(32) %__args3), !noalias !229
  %conv.i.i.i = trunc i64 %call.i.i.i to i32
  store i32 %conv.i.i.i, ptr %__args5.val, align 4, !noalias !229
  %state_.i.i.i.i.i = getelementptr inbounds i8, ptr %agg.result, i64 8
  store ptr null, ptr %state_.i.i.i.i.i, align 8, !alias.scope !230
  tail call void @llvm.memset.p0.i64(ptr noundef nonnull align 8 dereferenceable(6) %agg.result, i8 0, i64 6, i1 false), !alias.scope !230
  ret void
}